target datalayout = "e-m:e-p270:32:32-p271:32:32-p272:64:64-i64:64-i128:128-f80:128-n8:16:32:64-S128"
target triple = "x86_64-pc-linux-gnu"

; Function Attrs: nounwind sspstrong uwtable
define internal i64 @ractor_safe_call_cfunc_13(i64 noundef %0, i32 noundef %1, ptr noundef %2, ptr noundef %3) #0 {
  %5 = alloca i64, align 8
  %6 = alloca i32, align 4
  %7 = alloca ptr, align 8
  %8 = alloca ptr, align 8
  %9 = alloca ptr, align 8
  store i64 %0, ptr %5, align 8, !tbaa !31
  store i32 %1, ptr %6, align 4, !tbaa !24
  store ptr %2, ptr %7, align 8, !tbaa !7
  store ptr %3, ptr %8, align 8, !tbaa !77
  call void @llvm.lifetime.start.p0(i64 8, ptr %9) #21
  %10 = load ptr, ptr %8, align 8, !tbaa !77
  store ptr %10, ptr %9, align 8, !tbaa !77
  %11 = load ptr, ptr %9, align 8, !tbaa !77
  %12 = load i64, ptr %5, align 8, !tbaa !31
  %13 = load ptr, ptr %7, align 8, !tbaa !7
  %14 = getelementptr i64, ptr %13, i64 0
  %15 = load i64, ptr %14, align 8, !tbaa !31
  %16 = load ptr, ptr %7, align 8, !tbaa !7
  %17 = getelementptr i64, ptr %16, i64 1
  %18 = load i64, ptr %17, align 8, !tbaa !31
  %19 = load ptr, ptr %7, align 8, !tbaa !7
  %20 = getelementptr i64, ptr %19, i64 2
  %21 = load i64, ptr %20, align 8, !tbaa !31
  %22 = load ptr, ptr %7, align 8, !tbaa !7
  %23 = getelementptr i64, ptr %22, i64 3
  %24 = load i64, ptr %23, align 8, !tbaa !31
  %25 = load ptr, ptr %7, align 8, !tbaa !7
  %26 = getelementptr i64, ptr %25, i64 4
  %27 = load i64, ptr %26, align 8, !tbaa !31
  %28 = load ptr, ptr %7, align 8, !tbaa !7
  %29 = getelementptr i64, ptr %28, i64 5
  %30 = load i64, ptr %29, align 8, !tbaa !31
  %31 = load ptr, ptr %7, align 8, !tbaa !7
  %32 = getelementptr i64, ptr %31, i64 6
  %33 = load i64, ptr %32, align 8, !tbaa !31
  %34 = load ptr, ptr %7, align 8, !tbaa !7
  %35 = getelementptr i64, ptr %34, i64 7
  %36 = load i64, ptr %35, align 8, !tbaa !31
  %37 = load ptr, ptr %7, align 8, !tbaa !7
  %38 = getelementptr i64, ptr %37, i64 8
  %39 = load i64, ptr %38, align 8, !tbaa !31
  %40 = load ptr, ptr %7, align 8, !tbaa !7
  %41 = getelementptr i64, ptr %40, i64 9
  %42 = load i64, ptr %41, align 8, !tbaa !31
  %43 = load ptr, ptr %7, align 8, !tbaa !7
  %44 = getelementptr i64, ptr %43, i64 10
  %45 = load i64, ptr %44, align 8, !tbaa !31
  %46 = load ptr, ptr %7, align 8, !tbaa !7
  %47 = getelementptr i64, ptr %46, i64 11
  %48 = load i64, ptr %47, align 8, !tbaa !31
  %49 = load ptr, ptr %7, align 8, !tbaa !7
  %50 = getelementptr i64, ptr %49, i64 12
  %51 = load i64, ptr %50, align 8, !tbaa !31
  %52 = call i64 %11(i64 noundef %12, i64 noundef %15, i64 noundef %18, i64 noundef %21, i64 noundef %24, i64 noundef %27, i64 noundef %30, i64 noundef %33, i64 noundef %36, i64 noundef %39, i64 noundef %42, i64 noundef %45, i64 noundef %48, i64 noundef %51)
  call void @llvm.lifetime.end.p0(i64 8, ptr %9) #21
  ret i64 %52
}