; Function Attrs: nounwind sspstrong uwtable
define internal i64 @ractor_safe_call_cfunc_13(i64 noundef %0, i32 %1, ptr noundef readonly captures(none) %2, ptr noundef readonly captures(none) %3) #2 {
  %5 = load i64, ptr %2, align 8, !tbaa !7
  %6 = getelementptr i8, ptr %2, i64 8
  %7 = load i64, ptr %6, align 8, !tbaa !7
  %8 = getelementptr i8, ptr %2, i64 16
  %9 = load i64, ptr %8, align 8, !tbaa !7
  %10 = getelementptr i8, ptr %2, i64 24
  %11 = load i64, ptr %10, align 8, !tbaa !7
  %12 = getelementptr i8, ptr %2, i64 32
  %13 = load i64, ptr %12, align 8, !tbaa !7
  %14 = getelementptr i8, ptr %2, i64 40
  %15 = load i64, ptr %14, align 8, !tbaa !7
  %16 = getelementptr i8, ptr %2, i64 48
  %17 = load i64, ptr %16, align 8, !tbaa !7
  %18 = getelementptr i8, ptr %2, i64 56
  %19 = load i64, ptr %18, align 8, !tbaa !7
  %20 = getelementptr i8, ptr %2, i64 64
  %21 = load i64, ptr %20, align 8, !tbaa !7
  %22 = getelementptr i8, ptr %2, i64 72
  %23 = load i64, ptr %22, align 8, !tbaa !7
  %24 = getelementptr i8, ptr %2, i64 80
  %25 = load i64, ptr %24, align 8, !tbaa !7
  %26 = getelementptr i8, ptr %2, i64 88
  %27 = load i64, ptr %26, align 8, !tbaa !7
  %28 = getelementptr i8, ptr %2, i64 96
  %29 = load i64, ptr %28, align 8, !tbaa !7
  %30 = tail call i64 %3(i64 noundef %0, i64 noundef %5, i64 noundef %7, i64 noundef %9, i64 noundef %11, i64 noundef %13, i64 noundef %15, i64 noundef %17, i64 noundef %19, i64 noundef %21, i64 noundef %23, i64 noundef %25, i64 noundef %27, i64 noundef %29) #21
  ret i64 %30
}